target datalayout = "e-m:e-p270:32:32-p271:32:32-p272:64:64-i64:64-i128:128-f80:128-n8:16:32:64-S128"
target triple = "x86_64-unknown-linux-gnu"

%"class.dimacs::stream_buffer" = type { ptr, i32, i32 }
%class.svector.26 = type { %class.vector.27 }
%class.vector.27 = type { ptr }
%"class.sat::status" = type { i32, i32, ptr }
%"class.std::_Function_base" = type { %"union.std::_Any_data", ptr }
%"union.std::_Any_data" = type { %"union.std::_Nocopy_types" }
%"union.std::_Nocopy_types" = type { { i64, i64 } }
%"struct.dimacs::drat_record" = type { %class.svector.26, %"class.sat::status" }
%"class.dimacs::drat_parser" = type { %"class.dimacs::stream_buffer", ptr, %"struct.dimacs::drat_record", %"class.std::function.51", %class.svector.24 }
%"class.std::function.51" = type { %"class.std::_Function_base", ptr }
%class.svector.24 = type { %class.vector.25 }
%class.vector.25 = type { ptr }

; Function Attrs: mustprogress nounwind uwtable
define linkonce_odr hidden noundef ptr @_ZNK6vectorIcLb0EjE4dataEv(ptr noundef nonnull align 8 dereferenceable(8) %this) #4 comdat align 2 {
entry:
  %this.addr = alloca ptr, align 8
  store ptr %this, ptr %this.addr, align 8
  %this1 = load ptr, ptr %this.addr, align 8
  %m_data = getelementptr inbounds %class.vector.25, ptr %this1, i32 0, i32 0
  %0 = load ptr, ptr %m_data, align 8
  ret ptr %0
}

; Function Attrs: mustprogress uwtable
define linkonce_odr hidden void @_ZN6dimacs13stream_bufferppEv(ptr noundef nonnull align 8 dereferenceable(16) %this) #5 comdat align 2 {
entry:
  %this.addr = alloca ptr, align 8
  store ptr %this, ptr %this.addr, align 8
  %this1 = load ptr, ptr %this.addr, align 8
  %m_stream = getelementptr inbounds %"class.dimacs::stream_buffer", ptr %this1, i32 0, i32 0
  %0 = load ptr, ptr %m_stream, align 8
  %call = call noundef i32 @_ZNSi3getEv(ptr noundef nonnull align 8 dereferenceable(16) %0)
  %m_val = getelementptr inbounds %"class.dimacs::stream_buffer", ptr %this1, i32 0, i32 1
  store i32 %call, ptr %m_val, align 8
  %m_val2 = getelementptr inbounds %"class.dimacs::stream_buffer", ptr %this1, i32 0, i32 1
  %1 = load i32, ptr %m_val2, align 8
  %cmp = icmp eq i32 %1, 10
  br i1 %cmp, label %if.then, label %if.end

if.then:                                          ; preds = %entry
  %m_line = getelementptr inbounds %"class.dimacs::stream_buffer", ptr %this1, i32 0, i32 2
  %2 = load i32, ptr %m_line, align 4
  %inc = add i32 %2, 1
  store i32 %inc, ptr %m_line, align 4
  br label %if.end

if.end:                                           ; preds = %if.then, %entry
  ret void
}

; Function Attrs: mustprogress uwtable
define linkonce_odr hidden noundef nonnull align 8 dereferenceable(8) ptr @_ZN6vectorIcLb0EjE9push_backEOc(ptr noundef nonnull align 8 dereferenceable(8) %this, ptr noundef nonnull align 1 dereferenceable(1) %elem) #5 comdat align 2 {
entry:
  %this.addr = alloca ptr, align 8
  %elem.addr = alloca ptr, align 8
  store ptr %this, ptr %this.addr, align 8
  store ptr %elem, ptr %elem.addr, align 8
  %this1 = load ptr, ptr %this.addr, align 8
  %m_data = getelementptr inbounds %class.vector.25, ptr %this1, i32 0, i32 0
  %0 = load ptr, ptr %m_data, align 8
  %cmp = icmp eq ptr %0, null
  br i1 %cmp, label %if.then, label %lor.lhs.false

lor.lhs.false:                                    ; preds = %entry
  %m_data2 = getelementptr inbounds %class.vector.25, ptr %this1, i32 0, i32 0
  %1 = load ptr, ptr %m_data2, align 8
  %arrayidx = getelementptr inbounds i32, ptr %1, i64 -1
  %2 = load i32, ptr %arrayidx, align 4
  %m_data3 = getelementptr inbounds %class.vector.25, ptr %this1, i32 0, i32 0
  %3 = load ptr, ptr %m_data3, align 8
  %arrayidx4 = getelementptr inbounds i32, ptr %3, i64 -2
  %4 = load i32, ptr %arrayidx4, align 4
  %cmp5 = icmp eq i32 %2, %4
  br i1 %cmp5, label %if.then, label %if.end

if.then:                                          ; preds = %lor.lhs.false, %entry
  call void @_ZN6vectorIcLb0EjE13expand_vectorEv(ptr noundef nonnull align 8 dereferenceable(8) %this1)
  br label %if.end

if.end:                                           ; preds = %if.then, %lor.lhs.false
  %m_data6 = getelementptr inbounds %class.vector.25, ptr %this1, i32 0, i32 0
  %5 = load ptr, ptr %m_data6, align 8
  %m_data7 = getelementptr inbounds %class.vector.25, ptr %this1, i32 0, i32 0
  %6 = load ptr, ptr %m_data7, align 8
  %arrayidx8 = getelementptr inbounds i32, ptr %6, i64 -1
  %7 = load i32, ptr %arrayidx8, align 4
  %idx.ext = zext i32 %7 to i64
  %add.ptr = getelementptr inbounds i8, ptr %5, i64 %idx.ext
  %8 = load ptr, ptr %elem.addr, align 8
  %9 = load i8, ptr %8, align 1
  store i8 %9, ptr %add.ptr, align 1
  %m_data9 = getelementptr inbounds %class.vector.25, ptr %this1, i32 0, i32 0
  %10 = load ptr, ptr %m_data9, align 8
  %arrayidx10 = getelementptr inbounds i32, ptr %10, i64 -1
  %11 = load i32, ptr %arrayidx10, align 4
  %inc = add i32 %11, 1
  store i32 %inc, ptr %arrayidx10, align 4
  ret ptr %this1
}

; Function Attrs: mustprogress nounwind uwtable
define linkonce_odr hidden noundef i32 @_ZNK6dimacs13stream_bufferdeEv(ptr noundef nonnull align 8 dereferenceable(16) %this) #4 comdat align 2 {
entry:
  %this.addr = alloca ptr, align 8
  store ptr %this, ptr %this.addr, align 8
  %this1 = load ptr, ptr %this.addr, align 8
  %m_val = getelementptr inbounds %"class.dimacs::stream_buffer", ptr %this1, i32 0, i32 1
  %0 = load i32, ptr %m_val, align 8
  ret i32 %0
}

; Function Attrs: mustprogress nounwind uwtable
define internal noundef zeroext i1 @_ZL13is_whitespaceIN6dimacs13stream_bufferEEbRT_(ptr noundef nonnull align 8 dereferenceable(16) %in) #4 {
entry:
  %in.addr = alloca ptr, align 8
  store ptr %in, ptr %in.addr, align 8
  %0 = load ptr, ptr %in.addr, align 8
  %call = call noundef i32 @_ZNK6dimacs13stream_bufferdeEv(ptr noundef nonnull align 8 dereferenceable(16) %0)
  %cmp = icmp sge i32 %call, 9
  br i1 %cmp, label %land.lhs.true, label %lor.rhs

land.lhs.true:                                    ; preds = %entry
  %1 = load ptr, ptr %in.addr, align 8
  %call1 = call noundef i32 @_ZNK6dimacs13stream_bufferdeEv(ptr noundef nonnull align 8 dereferenceable(16) %1)
  %cmp2 = icmp sle i32 %call1, 13
  br i1 %cmp2, label %lor.end, label %lor.rhs

lor.rhs:                                          ; preds = %land.lhs.true, %entry
  %2 = load ptr, ptr %in.addr, align 8
  %call3 = call noundef i32 @_ZNK6dimacs13stream_bufferdeEv(ptr noundef nonnull align 8 dereferenceable(16) %2)
  %cmp4 = icmp eq i32 %call3, 32
  br label %lor.end

lor.end:                                          ; preds = %lor.rhs, %land.lhs.true
  %3 = phi i1 [ true, %land.lhs.true ], [ %cmp4, %lor.rhs ]
  ret i1 %3
}

; Function Attrs: mustprogress nounwind uwtable
define linkonce_odr hidden void @_ZN6vectorIcLb0EjE5resetEv(ptr noundef nonnull align 8 dereferenceable(8) %this) #4 comdat align 2 {
entry:
  %this.addr = alloca ptr, align 8
  store ptr %this, ptr %this.addr, align 8
  %this1 = load ptr, ptr %this.addr, align 8
  %m_data = getelementptr inbounds %class.vector.25, ptr %this1, i32 0, i32 0
  %0 = load ptr, ptr %m_data, align 8
  %tobool = icmp ne ptr %0, null
  br i1 %tobool, label %if.then, label %if.end

if.then:                                          ; preds = %entry
  %m_data2 = getelementptr inbounds %class.vector.25, ptr %this1, i32 0, i32 0
  %1 = load ptr, ptr %m_data2, align 8
  %arrayidx = getelementptr inbounds i32, ptr %1, i64 -1
  store i32 0, ptr %arrayidx, align 4
  br label %if.end

if.end:                                           ; preds = %if.then, %entry
  ret void
}

; Function Attrs: mustprogress uwtable
define hidden noundef ptr @_ZN6dimacs11drat_parser16parse_identifierEv(ptr noundef nonnull align 8 dereferenceable(88) %this) #5 align 2 {
entry:
  %this.addr = alloca ptr, align 8
  %ref.tmp = alloca i8, align 1
  %ref.tmp8 = alloca i8, align 1
  store ptr %this, ptr %this.addr, align 8
  %this1 = load ptr, ptr %this.addr, align 8
  %m_buffer = getelementptr inbounds %"class.dimacs::drat_parser", ptr %this1, i32 0, i32 4
  call void @_ZN6vectorIcLb0EjE5resetEv(ptr noundef nonnull align 8 dereferenceable(8) %m_buffer)
  br label %while.cond

while.cond:                                       ; preds = %while.body, %entry
  %in = getelementptr inbounds %"class.dimacs::drat_parser", ptr %this1, i32 0, i32 0
  %call = call noundef zeroext i1 @_ZL13is_whitespaceIN6dimacs13stream_bufferEEbRT_(ptr noundef nonnull align 8 dereferenceable(16) %in)
  %lnot = xor i1 %call, true
  br i1 %lnot, label %while.body, label %while.end

while.body:                                       ; preds = %while.cond
  %m_buffer2 = getelementptr inbounds %"class.dimacs::drat_parser", ptr %this1, i32 0, i32 4
  %in3 = getelementptr inbounds %"class.dimacs::drat_parser", ptr %this1, i32 0, i32 0
  %call4 = call noundef i32 @_ZNK6dimacs13stream_bufferdeEv(ptr noundef nonnull align 8 dereferenceable(16) %in3)
  %conv = trunc i32 %call4 to i8
  store i8 %conv, ptr %ref.tmp, align 1
  %call5 = call noundef nonnull align 8 dereferenceable(8) ptr @_ZN6vectorIcLb0EjE9push_backEOc(ptr noundef nonnull align 8 dereferenceable(8) %m_buffer2, ptr noundef nonnull align 1 dereferenceable(1) %ref.tmp)
  %in6 = getelementptr inbounds %"class.dimacs::drat_parser", ptr %this1, i32 0, i32 0
  call void @_ZN6dimacs13stream_bufferppEv(ptr noundef nonnull align 8 dereferenceable(16) %in6)
  br label %while.cond, !llvm.loop !6

while.end:                                        ; preds = %while.cond
  %m_buffer7 = getelementptr inbounds %"class.dimacs::drat_parser", ptr %this1, i32 0, i32 4
  store i8 0, ptr %ref.tmp8, align 1
  %call9 = call noundef nonnull align 8 dereferenceable(8) ptr @_ZN6vectorIcLb0EjE9push_backEOc(ptr noundef nonnull align 8 dereferenceable(8) %m_buffer7, ptr noundef nonnull align 1 dereferenceable(1) %ref.tmp8)
  %m_buffer10 = getelementptr inbounds %"class.dimacs::drat_parser", ptr %this1, i32 0, i32 4
  %call11 = call noundef ptr @_ZNK6vectorIcLb0EjE4dataEv(ptr noundef nonnull align 8 dereferenceable(8) %m_buffer10)
  ret ptr %call11
}