; Function Attrs: mustprogress uwtable
define hidden noundef ptr @_ZN6dimacs11drat_parser16parse_identifierEv(ptr noundef nonnull align 8 dereferenceable(88) %this) local_unnamed_addr #3 align 2 {
entry:
  %m_buffer = getelementptr inbounds i8, ptr %this, i64 80
  %0 = load ptr, ptr %m_buffer, align 8
  %tobool.not.i = icmp eq ptr %0, null
  br i1 %tobool.not.i, label %_ZN6vectorIcLb0EjE5resetEv.exit, label %if.then.i

if.then.i:                                        ; preds = %entry
  %arrayidx.i = getelementptr inbounds i8, ptr %0, i64 -4
  store i32 0, ptr %arrayidx.i, align 4
  br label %_ZN6vectorIcLb0EjE5resetEv.exit

_ZN6vectorIcLb0EjE5resetEv.exit:                  ; preds = %entry, %if.then.i
  %1 = getelementptr inbounds i8, ptr %this, i64 8
  %m_line.i = getelementptr inbounds i8, ptr %this, i64 12
  %this.val.pre = load i32, ptr %1, align 8
  br label %while.cond

while.cond:                                       ; preds = %while.cond.backedge, %_ZN6vectorIcLb0EjE5resetEv.exit
  %this.val = phi i32 [ %this.val.pre, %_ZN6vectorIcLb0EjE5resetEv.exit ], [ %call.i, %while.cond.backedge ]
  switch i32 %this.val, label %while.body [
    i32 32, label %while.end
    i32 13, label %while.end
    i32 12, label %while.end
    i32 11, label %while.end
    i32 10, label %while.end
    i32 9, label %while.end
  ]

while.body:                                       ; preds = %while.cond
  %conv = trunc i32 %this.val to i8
  %2 = load ptr, ptr %m_buffer, align 8
  %cmp.i = icmp eq ptr %2, null
  br i1 %cmp.i, label %if.then.i2, label %lor.lhs.false.i

lor.lhs.false.i:                                  ; preds = %while.body
  %arrayidx.i1 = getelementptr inbounds i8, ptr %2, i64 -4
  %3 = load i32, ptr %arrayidx.i1, align 4
  %arrayidx4.i = getelementptr inbounds i8, ptr %2, i64 -8
  %4 = load i32, ptr %arrayidx4.i, align 4
  %cmp5.i = icmp eq i32 %3, %4
  br i1 %cmp5.i, label %if.then.i2, label %_ZN6vectorIcLb0EjE9push_backEOc.exit

if.then.i2:                                       ; preds = %lor.lhs.false.i, %while.body
  tail call void @_ZN6vectorIcLb0EjE13expand_vectorEv(ptr noundef nonnull align 8 dereferenceable(8) %m_buffer)
  %.pre.i = load ptr, ptr %m_buffer, align 8
  %arrayidx8.phi.trans.insert.i = getelementptr inbounds i8, ptr %.pre.i, i64 -4
  %.pre1.i = load i32, ptr %arrayidx8.phi.trans.insert.i, align 4
  br label %_ZN6vectorIcLb0EjE9push_backEOc.exit

_ZN6vectorIcLb0EjE9push_backEOc.exit:             ; preds = %lor.lhs.false.i, %if.then.i2
  %5 = phi i32 [ %.pre1.i, %if.then.i2 ], [ %3, %lor.lhs.false.i ]
  %6 = phi ptr [ %.pre.i, %if.then.i2 ], [ %2, %lor.lhs.false.i ]
  %idx.ext.i = zext i32 %5 to i64
  %add.ptr.i = getelementptr inbounds i8, ptr %6, i64 %idx.ext.i
  store i8 %conv, ptr %add.ptr.i, align 1
  %7 = load ptr, ptr %m_buffer, align 8
  %arrayidx10.i = getelementptr inbounds i8, ptr %7, i64 -4
  %8 = load i32, ptr %arrayidx10.i, align 4
  %inc.i = add i32 %8, 1
  store i32 %inc.i, ptr %arrayidx10.i, align 4
  %9 = load ptr, ptr %this, align 8
  %call.i = tail call noundef i32 @_ZNSi3getEv(ptr noundef nonnull align 8 dereferenceable(16) %9)
  store i32 %call.i, ptr %1, align 8
  %cmp.i4 = icmp eq i32 %call.i, 10
  br i1 %cmp.i4, label %if.then.i5, label %while.cond.backedge

while.cond.backedge:                              ; preds = %_ZN6vectorIcLb0EjE9push_backEOc.exit, %if.then.i5
  br label %while.cond, !llvm.loop !14

if.then.i5:                                       ; preds = %_ZN6vectorIcLb0EjE9push_backEOc.exit
  %10 = load i32, ptr %m_line.i, align 4
  %inc.i6 = add i32 %10, 1
  store i32 %inc.i6, ptr %m_line.i, align 4
  br label %while.cond.backedge

while.end:                                        ; preds = %while.cond, %while.cond, %while.cond, %while.cond, %while.cond, %while.cond
  %11 = load ptr, ptr %m_buffer, align 8
  %cmp.i7 = icmp eq ptr %11, null
  br i1 %cmp.i7, label %if.then.i16, label %lor.lhs.false.i8

lor.lhs.false.i8:                                 ; preds = %while.end
  %arrayidx.i9 = getelementptr inbounds i8, ptr %11, i64 -4
  %12 = load i32, ptr %arrayidx.i9, align 4
  %arrayidx4.i10 = getelementptr inbounds i8, ptr %11, i64 -8
  %13 = load i32, ptr %arrayidx4.i10, align 4
  %cmp5.i11 = icmp eq i32 %12, %13
  br i1 %cmp5.i11, label %if.then.i16, label %_ZN6vectorIcLb0EjE9push_backEOc.exit20

if.then.i16:                                      ; preds = %lor.lhs.false.i8, %while.end
  tail call void @_ZN6vectorIcLb0EjE13expand_vectorEv(ptr noundef nonnull align 8 dereferenceable(8) %m_buffer)
  %.pre.i17 = load ptr, ptr %m_buffer, align 8
  %arrayidx8.phi.trans.insert.i18 = getelementptr inbounds i8, ptr %.pre.i17, i64 -4
  %.pre1.i19 = load i32, ptr %arrayidx8.phi.trans.insert.i18, align 4
  br label %_ZN6vectorIcLb0EjE9push_backEOc.exit20

_ZN6vectorIcLb0EjE9push_backEOc.exit20:           ; preds = %lor.lhs.false.i8, %if.then.i16
  %14 = phi i32 [ %.pre1.i19, %if.then.i16 ], [ %12, %lor.lhs.false.i8 ]
  %15 = phi ptr [ %.pre.i17, %if.then.i16 ], [ %11, %lor.lhs.false.i8 ]
  %idx.ext.i12 = zext i32 %14 to i64
  %add.ptr.i13 = getelementptr inbounds i8, ptr %15, i64 %idx.ext.i12
  store i8 0, ptr %add.ptr.i13, align 1
  %16 = load ptr, ptr %m_buffer, align 8
  %arrayidx10.i14 = getelementptr inbounds i8, ptr %16, i64 -4
  %17 = load i32, ptr %arrayidx10.i14, align 4
  %inc.i15 = add i32 %17, 1
  store i32 %inc.i15, ptr %arrayidx10.i14, align 4
  %18 = load ptr, ptr %m_buffer, align 8
  ret ptr %18
}